target datalayout = "e-m:e-p270:32:32-p271:32:32-p272:64:64-i64:64-i128:128-f80:128-n8:16:32:64-S128"
target triple = "x86_64-unknown-linux-gnu"

%struct.BinaryProperty = type { i32, i32, ptr }

; Function Attrs: mustprogress uwtable
define signext i8 @u_hasBinaryProperty_75(i32 noundef %c, i32 noundef %which) #0 {
entry:
  %retval = alloca i8, align 1
  %c.addr = alloca i32, align 4
  %which.addr = alloca i32, align 4
  %prop = alloca ptr, align 8
  store i32 %c, ptr %c.addr, align 4
  store i32 %which, ptr %which.addr, align 4
  %0 = load i32, ptr %which.addr, align 4
  %cmp = icmp slt i32 %0, 0
  br i1 %cmp, label %if.then, label %lor.lhs.false

lor.lhs.false:                                    ; preds = %entry
  %1 = load i32, ptr %which.addr, align 4
  %cmp1 = icmp sle i32 75, %1
  br i1 %cmp1, label %if.then, label %if.else

if.then:                                          ; preds = %lor.lhs.false, %entry
  store i8 0, ptr %retval, align 1
  br label %return

if.else:                                          ; preds = %lor.lhs.false
  %2 = load i32, ptr %which.addr, align 4
  %idxprom = sext i32 %2 to i64
  %arrayidx = getelementptr inbounds [75 x %struct.BinaryProperty], ptr @_ZL8binProps, i64 0, i64 %idxprom
  store ptr %arrayidx, ptr %prop, align 8
  %3 = load ptr, ptr %prop, align 8
  %contains = getelementptr inbounds %struct.BinaryProperty, ptr %3, i32 0, i32 2
  %4 = load ptr, ptr %contains, align 8
  %5 = load ptr, ptr %prop, align 8
  %6 = load i32, ptr %c.addr, align 4
  %7 = load i32, ptr %which.addr, align 4
  %call = call noundef signext i8 %4(ptr noundef nonnull align 8 dereferenceable(16) %5, i32 noundef %6, i32 noundef %7)
  store i8 %call, ptr %retval, align 1
  br label %return

return:                                           ; preds = %if.else, %if.then
  %8 = load i8, ptr %retval, align 1
  ret i8 %8
}