; Function Attrs: mustprogress uwtable
define noundef signext i8 @u_hasBinaryProperty_75(i32 noundef %c, i32 noundef %which) local_unnamed_addr #0 {
entry:
  %or.cond = icmp ugt i32 %which, 74
  br i1 %or.cond, label %return, label %if.else

if.else:                                          ; preds = %entry
  %idxprom = zext nneg i32 %which to i64
  %arrayidx = getelementptr inbounds [75 x %struct.BinaryProperty], ptr @_ZL8binProps, i64 0, i64 %idxprom
  %contains = getelementptr inbounds i8, ptr %arrayidx, i64 8
  %0 = load ptr, ptr %contains, align 8
  %call = tail call noundef signext i8 %0(ptr noundef nonnull align 8 dereferenceable(16) %arrayidx, i32 noundef %c, i32 noundef %which)
  br label %return

return:                                           ; preds = %entry, %if.else
  %retval.0 = phi i8 [ %call, %if.else ], [ 0, %entry ]
  ret i8 %retval.0
}